; Function Attrs: mustprogress uwtable
define hidden void @_ZN6google8protobuf8internal13ReflectionOps4CopyERKNS0_7MessageEPS3_(ptr noundef nonnull align 8 dereferenceable(16) %0, ptr noundef %1) local_unnamed_addr #3 align 2 {
  %3 = icmp eq ptr %0, %1
  br i1 %3, label %5, label %4

4:                                                ; preds = %2
  tail call void @_ZN6google8protobuf8internal13ReflectionOps5ClearEPNS0_7MessageE(ptr noundef %1)
  tail call void @_ZN6google8protobuf8internal13ReflectionOps5MergeERKNS0_7MessageEPS3_(ptr noundef nonnull align 8 dereferenceable(16) %0, ptr noundef nonnull %1)
  br label %5

5:                                                ; preds = %2, %4
  ret void
}